target datalayout = "e-m:e-p270:32:32-p271:32:32-p272:64:64-i64:64-i128:128-f80:128-n8:16:32:64-S128"
target triple = "x86_64-pc-linux-gnu"

%struct._zval_struct = type { %union._zend_value, %union.anon, %union.anon.2 }
%union._zend_value = type { i64 }
%union.anon = type { i32 }
%union.anon.2 = type { i32 }
%struct._zend_refcounted_h = type { i32, %union.anon.6 }
%union.anon.6 = type { i32 }
%struct._zend_string = type { %struct._zend_refcounted_h, i64, i64, [1 x i8] }

; Function Attrs: nounwind uwtable
define internal i32 @pdo_sqlite_get_attribute(ptr noundef %0, i64 noundef %1, ptr noundef %2) #0 {
  %4 = alloca ptr, align 8
  %5 = alloca i32, align 4
  %6 = alloca i64, align 8
  %7 = alloca i8, align 1
  %8 = alloca ptr, align 8
  %9 = alloca ptr, align 8
  %10 = alloca i64, align 8
  %11 = alloca i8, align 1
  %12 = alloca ptr, align 8
  %13 = alloca i32, align 4
  %14 = alloca ptr, align 8
  %15 = alloca i64, align 8
  %16 = alloca ptr, align 8
  %17 = alloca ptr, align 8
  %18 = alloca ptr, align 8
  %19 = alloca ptr, align 8
  store ptr %0, ptr %14, align 8
  store i64 %1, ptr %15, align 8
  store ptr %2, ptr %16, align 8
  %20 = load i64, ptr %15, align 8
  switch i64 %20, label %482 [
    i64 5, label %21
    i64 4, label %21
  ]

21:                                               ; preds = %3, %3
  br label %22

22:                                               ; preds = %21
  %23 = call ptr @sqlite3_libversion()
  store ptr %23, ptr %17, align 8
  br label %24

24:                                               ; preds = %22
  br label %25

25:                                               ; preds = %24
  %26 = load ptr, ptr %16, align 8
  store ptr %26, ptr %18, align 8
  %27 = load ptr, ptr %17, align 8
  %28 = load ptr, ptr %17, align 8
  %29 = call i64 @strlen(ptr noundef %28) #12
  store ptr %27, ptr %9, align 8
  store i64 %29, ptr %10, align 8
  store i8 0, ptr %11, align 1
  %30 = load i64, ptr %10, align 8
  %31 = load i8, ptr %11, align 1
  %32 = trunc i8 %31 to i1
  store i64 %30, ptr %6, align 8
  %33 = zext i1 %32 to i8
  store i8 %33, ptr %7, align 1
  %34 = load i8, ptr %7, align 1
  %35 = trunc i8 %34 to i1
  br i1 %35, label %36, label %44

36:                                               ; preds = %25
  %37 = load i64, ptr %6, align 8
  %38 = add i64 24, %37
  %39 = add i64 %38, 1
  %40 = add i64 %39, 8
  %41 = sub i64 %40, 1
  %42 = and i64 %41, -8
  %43 = call noalias ptr @__zend_malloc(i64 noundef %42) #11
  br label %448

44:                                               ; preds = %25
  %45 = load i64, ptr %6, align 8
  %46 = add i64 24, %45
  %47 = add i64 %46, 1
  %48 = add i64 %47, 8
  %49 = sub i64 %48, 1
  %50 = and i64 %49, -8
  %51 = call i1 @llvm.is.constant.i64(i64 %50)
  br i1 %51, label %52, label %438

52:                                               ; preds = %44
  %53 = load i64, ptr %6, align 8
  %54 = add i64 24, %53
  %55 = add i64 %54, 1
  %56 = add i64 %55, 8
  %57 = sub i64 %56, 1
  %58 = and i64 %57, -8
  %59 = icmp ule i64 %58, 8
  br i1 %59, label %60, label %62

60:                                               ; preds = %52
  %61 = call noalias ptr @_emalloc_8() #9
  br label %436

62:                                               ; preds = %52
  %63 = load i64, ptr %6, align 8
  %64 = add i64 24, %63
  %65 = add i64 %64, 1
  %66 = add i64 %65, 8
  %67 = sub i64 %66, 1
  %68 = and i64 %67, -8
  %69 = icmp ule i64 %68, 16
  br i1 %69, label %70, label %72

70:                                               ; preds = %62
  %71 = call noalias ptr @_emalloc_16() #9
  br label %434

72:                                               ; preds = %62
  %73 = load i64, ptr %6, align 8
  %74 = add i64 24, %73
  %75 = add i64 %74, 1
  %76 = add i64 %75, 8
  %77 = sub i64 %76, 1
  %78 = and i64 %77, -8
  %79 = icmp ule i64 %78, 24
  br i1 %79, label %80, label %82

80:                                               ; preds = %72
  %81 = call noalias ptr @_emalloc_24() #9
  br label %432

82:                                               ; preds = %72
  %83 = load i64, ptr %6, align 8
  %84 = add i64 24, %83
  %85 = add i64 %84, 1
  %86 = add i64 %85, 8
  %87 = sub i64 %86, 1
  %88 = and i64 %87, -8
  %89 = icmp ule i64 %88, 32
  br i1 %89, label %90, label %92

90:                                               ; preds = %82
  %91 = call noalias ptr @_emalloc_32() #9
  br label %430

92:                                               ; preds = %82
  %93 = load i64, ptr %6, align 8
  %94 = add i64 24, %93
  %95 = add i64 %94, 1
  %96 = add i64 %95, 8
  %97 = sub i64 %96, 1
  %98 = and i64 %97, -8
  %99 = icmp ule i64 %98, 40
  br i1 %99, label %100, label %102

100:                                              ; preds = %92
  %101 = call noalias ptr @_emalloc_40() #9
  br label %428

102:                                              ; preds = %92
  %103 = load i64, ptr %6, align 8
  %104 = add i64 24, %103
  %105 = add i64 %104, 1
  %106 = add i64 %105, 8
  %107 = sub i64 %106, 1
  %108 = and i64 %107, -8
  %109 = icmp ule i64 %108, 48
  br i1 %109, label %110, label %112

110:                                              ; preds = %102
  %111 = call noalias ptr @_emalloc_48() #9
  br label %426

112:                                              ; preds = %102
  %113 = load i64, ptr %6, align 8
  %114 = add i64 24, %113
  %115 = add i64 %114, 1
  %116 = add i64 %115, 8
  %117 = sub i64 %116, 1
  %118 = and i64 %117, -8
  %119 = icmp ule i64 %118, 56
  br i1 %119, label %120, label %122

120:                                              ; preds = %112
  %121 = call noalias ptr @_emalloc_56() #9
  br label %424

122:                                              ; preds = %112
  %123 = load i64, ptr %6, align 8
  %124 = add i64 24, %123
  %125 = add i64 %124, 1
  %126 = add i64 %125, 8
  %127 = sub i64 %126, 1
  %128 = and i64 %127, -8
  %129 = icmp ule i64 %128, 64
  br i1 %129, label %130, label %132

130:                                              ; preds = %122
  %131 = call noalias ptr @_emalloc_64() #9
  br label %422

132:                                              ; preds = %122
  %133 = load i64, ptr %6, align 8
  %134 = add i64 24, %133
  %135 = add i64 %134, 1
  %136 = add i64 %135, 8
  %137 = sub i64 %136, 1
  %138 = and i64 %137, -8
  %139 = icmp ule i64 %138, 80
  br i1 %139, label %140, label %142

140:                                              ; preds = %132
  %141 = call noalias ptr @_emalloc_80() #9
  br label %420

142:                                              ; preds = %132
  %143 = load i64, ptr %6, align 8
  %144 = add i64 24, %143
  %145 = add i64 %144, 1
  %146 = add i64 %145, 8
  %147 = sub i64 %146, 1
  %148 = and i64 %147, -8
  %149 = icmp ule i64 %148, 96
  br i1 %149, label %150, label %152

150:                                              ; preds = %142
  %151 = call noalias ptr @_emalloc_96() #9
  br label %418

152:                                              ; preds = %142
  %153 = load i64, ptr %6, align 8
  %154 = add i64 24, %153
  %155 = add i64 %154, 1
  %156 = add i64 %155, 8
  %157 = sub i64 %156, 1
  %158 = and i64 %157, -8
  %159 = icmp ule i64 %158, 112
  br i1 %159, label %160, label %162

160:                                              ; preds = %152
  %161 = call noalias ptr @_emalloc_112() #9
  br label %416

162:                                              ; preds = %152
  %163 = load i64, ptr %6, align 8
  %164 = add i64 24, %163
  %165 = add i64 %164, 1
  %166 = add i64 %165, 8
  %167 = sub i64 %166, 1
  %168 = and i64 %167, -8
  %169 = icmp ule i64 %168, 128
  br i1 %169, label %170, label %172

170:                                              ; preds = %162
  %171 = call noalias ptr @_emalloc_128() #9
  br label %414

172:                                              ; preds = %162
  %173 = load i64, ptr %6, align 8
  %174 = add i64 24, %173
  %175 = add i64 %174, 1
  %176 = add i64 %175, 8
  %177 = sub i64 %176, 1
  %178 = and i64 %177, -8
  %179 = icmp ule i64 %178, 160
  br i1 %179, label %180, label %182

180:                                              ; preds = %172
  %181 = call noalias ptr @_emalloc_160() #9
  br label %412

182:                                              ; preds = %172
  %183 = load i64, ptr %6, align 8
  %184 = add i64 24, %183
  %185 = add i64 %184, 1
  %186 = add i64 %185, 8
  %187 = sub i64 %186, 1
  %188 = and i64 %187, -8
  %189 = icmp ule i64 %188, 192
  br i1 %189, label %190, label %192

190:                                              ; preds = %182
  %191 = call noalias ptr @_emalloc_192() #9
  br label %410

192:                                              ; preds = %182
  %193 = load i64, ptr %6, align 8
  %194 = add i64 24, %193
  %195 = add i64 %194, 1
  %196 = add i64 %195, 8
  %197 = sub i64 %196, 1
  %198 = and i64 %197, -8
  %199 = icmp ule i64 %198, 224
  br i1 %199, label %200, label %202

200:                                              ; preds = %192
  %201 = call noalias ptr @_emalloc_224() #9
  br label %408

202:                                              ; preds = %192
  %203 = load i64, ptr %6, align 8
  %204 = add i64 24, %203
  %205 = add i64 %204, 1
  %206 = add i64 %205, 8
  %207 = sub i64 %206, 1
  %208 = and i64 %207, -8
  %209 = icmp ule i64 %208, 256
  br i1 %209, label %210, label %212

210:                                              ; preds = %202
  %211 = call noalias ptr @_emalloc_256() #9
  br label %406

212:                                              ; preds = %202
  %213 = load i64, ptr %6, align 8
  %214 = add i64 24, %213
  %215 = add i64 %214, 1
  %216 = add i64 %215, 8
  %217 = sub i64 %216, 1
  %218 = and i64 %217, -8
  %219 = icmp ule i64 %218, 320
  br i1 %219, label %220, label %222

220:                                              ; preds = %212
  %221 = call noalias ptr @_emalloc_320() #9
  br label %404

222:                                              ; preds = %212
  %223 = load i64, ptr %6, align 8
  %224 = add i64 24, %223
  %225 = add i64 %224, 1
  %226 = add i64 %225, 8
  %227 = sub i64 %226, 1
  %228 = and i64 %227, -8
  %229 = icmp ule i64 %228, 384
  br i1 %229, label %230, label %232

230:                                              ; preds = %222
  %231 = call noalias ptr @_emalloc_384() #9
  br label %402

232:                                              ; preds = %222
  %233 = load i64, ptr %6, align 8
  %234 = add i64 24, %233
  %235 = add i64 %234, 1
  %236 = add i64 %235, 8
  %237 = sub i64 %236, 1
  %238 = and i64 %237, -8
  %239 = icmp ule i64 %238, 448
  br i1 %239, label %240, label %242

240:                                              ; preds = %232
  %241 = call noalias ptr @_emalloc_448() #9
  br label %400

242:                                              ; preds = %232
  %243 = load i64, ptr %6, align 8
  %244 = add i64 24, %243
  %245 = add i64 %244, 1
  %246 = add i64 %245, 8
  %247 = sub i64 %246, 1
  %248 = and i64 %247, -8
  %249 = icmp ule i64 %248, 512
  br i1 %249, label %250, label %252

250:                                              ; preds = %242
  %251 = call noalias ptr @_emalloc_512() #9
  br label %398

252:                                              ; preds = %242
  %253 = load i64, ptr %6, align 8
  %254 = add i64 24, %253
  %255 = add i64 %254, 1
  %256 = add i64 %255, 8
  %257 = sub i64 %256, 1
  %258 = and i64 %257, -8
  %259 = icmp ule i64 %258, 640
  br i1 %259, label %260, label %262

260:                                              ; preds = %252
  %261 = call noalias ptr @_emalloc_640() #9
  br label %396

262:                                              ; preds = %252
  %263 = load i64, ptr %6, align 8
  %264 = add i64 24, %263
  %265 = add i64 %264, 1
  %266 = add i64 %265, 8
  %267 = sub i64 %266, 1
  %268 = and i64 %267, -8
  %269 = icmp ule i64 %268, 768
  br i1 %269, label %270, label %272

270:                                              ; preds = %262
  %271 = call noalias ptr @_emalloc_768() #9
  br label %394

272:                                              ; preds = %262
  %273 = load i64, ptr %6, align 8
  %274 = add i64 24, %273
  %275 = add i64 %274, 1
  %276 = add i64 %275, 8
  %277 = sub i64 %276, 1
  %278 = and i64 %277, -8
  %279 = icmp ule i64 %278, 896
  br i1 %279, label %280, label %282

280:                                              ; preds = %272
  %281 = call noalias ptr @_emalloc_896() #9
  br label %392

282:                                              ; preds = %272
  %283 = load i64, ptr %6, align 8
  %284 = add i64 24, %283
  %285 = add i64 %284, 1
  %286 = add i64 %285, 8
  %287 = sub i64 %286, 1
  %288 = and i64 %287, -8
  %289 = icmp ule i64 %288, 1024
  br i1 %289, label %290, label %292

290:                                              ; preds = %282
  %291 = call noalias ptr @_emalloc_1024() #9
  br label %390

292:                                              ; preds = %282
  %293 = load i64, ptr %6, align 8
  %294 = add i64 24, %293
  %295 = add i64 %294, 1
  %296 = add i64 %295, 8
  %297 = sub i64 %296, 1
  %298 = and i64 %297, -8
  %299 = icmp ule i64 %298, 1280
  br i1 %299, label %300, label %302

300:                                              ; preds = %292
  %301 = call noalias ptr @_emalloc_1280() #9
  br label %388

302:                                              ; preds = %292
  %303 = load i64, ptr %6, align 8
  %304 = add i64 24, %303
  %305 = add i64 %304, 1
  %306 = add i64 %305, 8
  %307 = sub i64 %306, 1
  %308 = and i64 %307, -8
  %309 = icmp ule i64 %308, 1536
  br i1 %309, label %310, label %312

310:                                              ; preds = %302
  %311 = call noalias ptr @_emalloc_1536() #9
  br label %386

312:                                              ; preds = %302
  %313 = load i64, ptr %6, align 8
  %314 = add i64 24, %313
  %315 = add i64 %314, 1
  %316 = add i64 %315, 8
  %317 = sub i64 %316, 1
  %318 = and i64 %317, -8
  %319 = icmp ule i64 %318, 1792
  br i1 %319, label %320, label %322

320:                                              ; preds = %312
  %321 = call noalias ptr @_emalloc_1792() #9
  br label %384

322:                                              ; preds = %312
  %323 = load i64, ptr %6, align 8
  %324 = add i64 24, %323
  %325 = add i64 %324, 1
  %326 = add i64 %325, 8
  %327 = sub i64 %326, 1
  %328 = and i64 %327, -8
  %329 = icmp ule i64 %328, 2048
  br i1 %329, label %330, label %332

330:                                              ; preds = %322
  %331 = call noalias ptr @_emalloc_2048() #9
  br label %382

332:                                              ; preds = %322
  %333 = load i64, ptr %6, align 8
  %334 = add i64 24, %333
  %335 = add i64 %334, 1
  %336 = add i64 %335, 8
  %337 = sub i64 %336, 1
  %338 = and i64 %337, -8
  %339 = icmp ule i64 %338, 2560
  br i1 %339, label %340, label %342

340:                                              ; preds = %332
  %341 = call noalias ptr @_emalloc_2560() #9
  br label %380

342:                                              ; preds = %332
  %343 = load i64, ptr %6, align 8
  %344 = add i64 24, %343
  %345 = add i64 %344, 1
  %346 = add i64 %345, 8
  %347 = sub i64 %346, 1
  %348 = and i64 %347, -8
  %349 = icmp ule i64 %348, 3072
  br i1 %349, label %350, label %352

350:                                              ; preds = %342
  %351 = call noalias ptr @_emalloc_3072() #9
  br label %378

352:                                              ; preds = %342
  %353 = load i64, ptr %6, align 8
  %354 = add i64 24, %353
  %355 = add i64 %354, 1
  %356 = add i64 %355, 8
  %357 = sub i64 %356, 1
  %358 = and i64 %357, -8
  %359 = icmp ule i64 %358, 2093056
  br i1 %359, label %360, label %368

360:                                              ; preds = %352
  %361 = load i64, ptr %6, align 8
  %362 = add i64 24, %361
  %363 = add i64 %362, 1
  %364 = add i64 %363, 8
  %365 = sub i64 %364, 1
  %366 = and i64 %365, -8
  %367 = call noalias ptr @_emalloc_large(i64 noundef %366) #11
  br label %376

368:                                              ; preds = %352
  %369 = load i64, ptr %6, align 8
  %370 = add i64 24, %369
  %371 = add i64 %370, 1
  %372 = add i64 %371, 8
  %373 = sub i64 %372, 1
  %374 = and i64 %373, -8
  %375 = call noalias ptr @_emalloc_huge(i64 noundef %374) #11
  br label %376

376:                                              ; preds = %368, %360
  %377 = phi ptr [ %367, %360 ], [ %375, %368 ]
  br label %378

378:                                              ; preds = %376, %350
  %379 = phi ptr [ %351, %350 ], [ %377, %376 ]
  br label %380

380:                                              ; preds = %378, %340
  %381 = phi ptr [ %341, %340 ], [ %379, %378 ]
  br label %382

382:                                              ; preds = %380, %330
  %383 = phi ptr [ %331, %330 ], [ %381, %380 ]
  br label %384

384:                                              ; preds = %382, %320
  %385 = phi ptr [ %321, %320 ], [ %383, %382 ]
  br label %386

386:                                              ; preds = %384, %310
  %387 = phi ptr [ %311, %310 ], [ %385, %384 ]
  br label %388

388:                                              ; preds = %386, %300
  %389 = phi ptr [ %301, %300 ], [ %387, %386 ]
  br label %390

390:                                              ; preds = %388, %290
  %391 = phi ptr [ %291, %290 ], [ %389, %388 ]
  br label %392

392:                                              ; preds = %390, %280
  %393 = phi ptr [ %281, %280 ], [ %391, %390 ]
  br label %394

394:                                              ; preds = %392, %270
  %395 = phi ptr [ %271, %270 ], [ %393, %392 ]
  br label %396

396:                                              ; preds = %394, %260
  %397 = phi ptr [ %261, %260 ], [ %395, %394 ]
  br label %398

398:                                              ; preds = %396, %250
  %399 = phi ptr [ %251, %250 ], [ %397, %396 ]
  br label %400

400:                                              ; preds = %398, %240
  %401 = phi ptr [ %241, %240 ], [ %399, %398 ]
  br label %402

402:                                              ; preds = %400, %230
  %403 = phi ptr [ %231, %230 ], [ %401, %400 ]
  br label %404

404:                                              ; preds = %402, %220
  %405 = phi ptr [ %221, %220 ], [ %403, %402 ]
  br label %406

406:                                              ; preds = %404, %210
  %407 = phi ptr [ %211, %210 ], [ %405, %404 ]
  br label %408

408:                                              ; preds = %406, %200
  %409 = phi ptr [ %201, %200 ], [ %407, %406 ]
  br label %410

410:                                              ; preds = %408, %190
  %411 = phi ptr [ %191, %190 ], [ %409, %408 ]
  br label %412

412:                                              ; preds = %410, %180
  %413 = phi ptr [ %181, %180 ], [ %411, %410 ]
  br label %414

414:                                              ; preds = %412, %170
  %415 = phi ptr [ %171, %170 ], [ %413, %412 ]
  br label %416

416:                                              ; preds = %414, %160
  %417 = phi ptr [ %161, %160 ], [ %415, %414 ]
  br label %418

418:                                              ; preds = %416, %150
  %419 = phi ptr [ %151, %150 ], [ %417, %416 ]
  br label %420

420:                                              ; preds = %418, %140
  %421 = phi ptr [ %141, %140 ], [ %419, %418 ]
  br label %422

422:                                              ; preds = %420, %130
  %423 = phi ptr [ %131, %130 ], [ %421, %420 ]
  br label %424

424:                                              ; preds = %422, %120
  %425 = phi ptr [ %121, %120 ], [ %423, %422 ]
  br label %426

426:                                              ; preds = %424, %110
  %427 = phi ptr [ %111, %110 ], [ %425, %424 ]
  br label %428

428:                                              ; preds = %426, %100
  %429 = phi ptr [ %101, %100 ], [ %427, %426 ]
  br label %430

430:                                              ; preds = %428, %90
  %431 = phi ptr [ %91, %90 ], [ %429, %428 ]
  br label %432

432:                                              ; preds = %430, %80
  %433 = phi ptr [ %81, %80 ], [ %431, %430 ]
  br label %434

434:                                              ; preds = %432, %70
  %435 = phi ptr [ %71, %70 ], [ %433, %432 ]
  br label %436

436:                                              ; preds = %434, %60
  %437 = phi ptr [ %61, %60 ], [ %435, %434 ]
  br label %446

438:                                              ; preds = %44
  %439 = load i64, ptr %6, align 8
  %440 = add i64 24, %439
  %441 = add i64 %440, 1
  %442 = add i64 %441, 8
  %443 = sub i64 %442, 1
  %444 = and i64 %443, -8
  %445 = call noalias ptr @_emalloc(i64 noundef %444) #11
  br label %446

446:                                              ; preds = %438, %436
  %447 = phi ptr [ %437, %436 ], [ %445, %438 ]
  br label %448

448:                                              ; preds = %446, %36
  %449 = phi ptr [ %43, %36 ], [ %447, %446 ]
  store ptr %449, ptr %8, align 8
  %450 = load ptr, ptr %8, align 8
  store ptr %450, ptr %4, align 8
  store i32 1, ptr %5, align 4
  %451 = load i32, ptr %5, align 4
  %452 = load ptr, ptr %4, align 8
  store i32 %451, ptr %452, align 4
  %453 = load i8, ptr %7, align 1
  %454 = trunc i8 %453 to i1
  %455 = select i1 %454, i32 128, i32 0
  %456 = or i32 22, %455
  %457 = load ptr, ptr %8, align 8
  %458 = getelementptr inbounds %struct._zend_refcounted_h, ptr %457, i32 0, i32 1
  store i32 %456, ptr %458, align 4
  %459 = load ptr, ptr %8, align 8
  %460 = getelementptr inbounds %struct._zend_string, ptr %459, i32 0, i32 1
  store i64 0, ptr %460, align 8
  %461 = load i64, ptr %6, align 8
  %462 = load ptr, ptr %8, align 8
  %463 = getelementptr inbounds %struct._zend_string, ptr %462, i32 0, i32 2
  store i64 %461, ptr %463, align 8
  %464 = load ptr, ptr %8, align 8
  store ptr %464, ptr %12, align 8
  %465 = load ptr, ptr %12, align 8
  %466 = getelementptr inbounds %struct._zend_string, ptr %465, i32 0, i32 3
  %467 = load ptr, ptr %9, align 8
  %468 = load i64, ptr %10, align 8
  call void @llvm.memcpy.p0.p0.i64(ptr align 8 %466, ptr align 1 %467, i64 %468, i1 false)
  %469 = load ptr, ptr %12, align 8
  %470 = getelementptr inbounds %struct._zend_string, ptr %469, i32 0, i32 3
  %471 = load i64, ptr %10, align 8
  %472 = getelementptr inbounds [1 x i8], ptr %470, i64 0, i64 %471
  store i8 0, ptr %472, align 1
  %473 = load ptr, ptr %12, align 8
  store ptr %473, ptr %19, align 8
  %474 = load ptr, ptr %19, align 8
  %475 = load ptr, ptr %18, align 8
  %476 = getelementptr inbounds %struct._zval_struct, ptr %475, i32 0, i32 0
  store ptr %474, ptr %476, align 8
  %477 = load ptr, ptr %18, align 8
  %478 = getelementptr inbounds %struct._zval_struct, ptr %477, i32 0, i32 1
  store i32 262, ptr %478, align 8
  br label %479

479:                                              ; preds = %448
  br label %480

480:                                              ; preds = %479
  br label %481

481:                                              ; preds = %480
  br label %483

482:                                              ; preds = %3
  store i32 0, ptr %13, align 4
  br label %484

483:                                              ; preds = %481
  store i32 1, ptr %13, align 4
  br label %484

484:                                              ; preds = %483, %482
  %485 = load i32, ptr %13, align 4
  ret i32 %485
}