; Function Attrs: nounwind uwtable
define internal noundef i32 @pdo_sqlite_get_attribute(ptr nocapture readnone %0, i64 noundef %1, ptr nocapture noundef writeonly %2) #0 {
  %4 = and i64 %1, -2
  %switch = icmp eq i64 %4, 4
  br i1 %switch, label %5, label %17

5:                                                ; preds = %3
  %6 = tail call ptr @sqlite3_libversion() #11
  %7 = tail call i64 @strlen(ptr noundef nonnull dereferenceable(1) %6) #14
  %8 = and i64 %7, -8
  %9 = add i64 %8, 32
  %10 = tail call noalias ptr @_emalloc(i64 noundef %9) #13
  store i32 1, ptr %10, align 4
  %11 = getelementptr inbounds i8, ptr %10, i64 4
  store i32 22, ptr %11, align 4
  %12 = getelementptr inbounds i8, ptr %10, i64 8
  store i64 0, ptr %12, align 8
  %13 = getelementptr inbounds i8, ptr %10, i64 16
  store i64 %7, ptr %13, align 8
  %14 = getelementptr inbounds i8, ptr %10, i64 24
  tail call void @llvm.memcpy.p0.p0.i64(ptr nonnull align 8 %14, ptr align 1 %6, i64 %7, i1 false)
  %15 = getelementptr inbounds [1 x i8], ptr %14, i64 0, i64 %7
  store i8 0, ptr %15, align 1
  store ptr %10, ptr %2, align 8
  %16 = getelementptr inbounds i8, ptr %2, i64 8
  store i32 262, ptr %16, align 8
  br label %17

17:                                               ; preds = %3, %5
  %.0 = phi i32 [ 1, %5 ], [ 0, %3 ]
  ret i32 %.0
}